target datalayout = "e-m:e-p270:32:32-p271:32:32-p272:64:64-i64:64-i128:128-f80:128-n8:16:32:64-S128"
target triple = "x86_64-pc-linux-gnu"

%class.TimeInstant = type { %class.CompositeCounterRepresentation }
%class.CompositeCounterRepresentation = type { %class.Representation }
%class.Representation = type { %class.PairRep }
%class.PairRep = type { i64, i64 }
%class.TimePartitions = type { ptr, %class.PhasesStack, %class.TimeInterval, %class.TimeInterval }
%class.PhasesStack = type { [6 x i32], i32 }
%class.TimeInterval = type { %class.CompositeCounterRepresentation }
%class.GCPhase = type <{ ptr, i32, [4 x i8], %class.TimeInstant, %class.TimeInstant, i32, [4 x i8] }>
%class.GrowableArrayView = type { %class.GrowableArrayBase, ptr }
%class.GrowableArrayBase = type { i32, i32 }

; Function Attrs: mustprogress nounwind uwtable
define linkonce_odr hidden noundef i32 @_ZNK7GCPhase4typeEv(ptr noundef nonnull align 8 dereferenceable(52) %0) #1 comdat align 2 {
  %2 = alloca ptr, align 8
  store ptr %0, ptr %2, align 8
  %3 = load ptr, ptr %2, align 8
  %4 = getelementptr inbounds %class.GCPhase, ptr %3, i32 0, i32 5
  %5 = load i32, ptr %4, align 8
  ret i32 %5
}

; Function Attrs: mustprogress nounwind uwtable
define linkonce_odr hidden noundef nonnull align 8 dereferenceable(52) ptr @_ZN17GrowableArrayViewI7GCPhaseE2atEi(ptr noundef nonnull align 8 dereferenceable(16) %0, i32 noundef %1) #1 comdat align 2 {
  %3 = alloca ptr, align 8
  %4 = alloca i32, align 4
  store ptr %0, ptr %3, align 8
  store i32 %1, ptr %4, align 4
  %5 = load ptr, ptr %3, align 8
  %6 = getelementptr inbounds %class.GrowableArrayView, ptr %5, i32 0, i32 1
  %7 = load ptr, ptr %6, align 8
  %8 = load i32, ptr %4, align 4
  %9 = sext i32 %8 to i64
  %10 = getelementptr inbounds %class.GCPhase, ptr %7, i64 %9
  ret ptr %10
}

; Function Attrs: mustprogress nounwind uwtable
define hidden noundef i32 @_ZNK11PhasesStack11phase_indexEi(ptr noundef nonnull align 4 dereferenceable(28) %0, i32 noundef %1) #1 align 2 {
  %3 = alloca ptr, align 8
  %4 = alloca i32, align 4
  store ptr %0, ptr %3, align 8
  store i32 %1, ptr %4, align 4
  %5 = load ptr, ptr %3, align 8
  %6 = getelementptr inbounds %class.PhasesStack, ptr %5, i32 0, i32 0
  %7 = load i32, ptr %4, align 4
  %8 = sext i32 %7 to i64
  %9 = getelementptr inbounds [6 x i32], ptr %6, i64 0, i64 %8
  %10 = load i32, ptr %9, align 4
  ret i32 %10
}

; Function Attrs: mustprogress nounwind uwtable
define hidden noundef i32 @_ZNK11PhasesStack5countEv(ptr noundef nonnull align 4 dereferenceable(28) %0) #1 align 2 {
  %2 = alloca ptr, align 8
  store ptr %0, ptr %2, align 8
  %3 = load ptr, ptr %2, align 8
  %4 = getelementptr inbounds %class.PhasesStack, ptr %3, i32 0, i32 1
  %5 = load i32, ptr %4, align 4
  ret i32 %5
}

; Function Attrs: mustprogress nounwind uwtable
define hidden noundef i32 @_ZNK14TimePartitions18current_phase_typeEv(ptr noundef nonnull align 8 dereferenceable(72) %0) #1 align 2 {
  %2 = alloca ptr, align 8
  %3 = alloca i32, align 4
  %4 = alloca i32, align 4
  %5 = alloca %class.GCPhase, align 8
  %6 = alloca i32, align 4
  store ptr %0, ptr %2, align 8
  %7 = load ptr, ptr %2, align 8
  %8 = getelementptr inbounds %class.TimePartitions, ptr %7, i32 0, i32 1
  %9 = call noundef i32 @_ZNK11PhasesStack5countEv(ptr noundef nonnull align 4 dereferenceable(28) %8)
  store i32 %9, ptr %3, align 4
  %10 = getelementptr inbounds %class.TimePartitions, ptr %7, i32 0, i32 1
  %11 = load i32, ptr %3, align 4
  %12 = sub nsw i32 %11, 1
  %13 = call noundef i32 @_ZNK11PhasesStack11phase_indexEi(ptr noundef nonnull align 4 dereferenceable(28) %10, i32 noundef %12)
  store i32 %13, ptr %4, align 4
  %14 = getelementptr inbounds %class.TimePartitions, ptr %7, i32 0, i32 0
  %15 = load ptr, ptr %14, align 8
  %16 = load i32, ptr %4, align 4
  %17 = call noundef nonnull align 8 dereferenceable(52) ptr @_ZN17GrowableArrayViewI7GCPhaseE2atEi(ptr noundef nonnull align 8 dereferenceable(16) %15, i32 noundef %16)
  call void @llvm.memcpy.p0.p0.i64(ptr align 8 %5, ptr align 8 %17, i64 56, i1 false)
  %18 = call noundef i32 @_ZNK7GCPhase4typeEv(ptr noundef nonnull align 8 dereferenceable(52) %5)
  store i32 %18, ptr %6, align 4
  %19 = load i32, ptr %6, align 4
  ret i32 %19
}