; Function Attrs: mustprogress nofree norecurse nosync nounwind willreturn memory(read, inaccessiblemem: none) uwtable
define hidden noundef i32 @_ZNK14TimePartitions18current_phase_typeEv(ptr nocapture noundef nonnull readonly align 8 dereferenceable(72) %0) local_unnamed_addr #7 align 2 {
  %2 = getelementptr inbounds i8, ptr %0, i64 8
  %3 = getelementptr inbounds i8, ptr %0, i64 32
  %4 = load i32, ptr %3, align 8
  %5 = add nsw i32 %4, -1
  %6 = sext i32 %5 to i64
  %7 = getelementptr inbounds [6 x i32], ptr %2, i64 0, i64 %6
  %8 = load i32, ptr %7, align 4
  %9 = load ptr, ptr %0, align 8
  %10 = getelementptr inbounds i8, ptr %9, i64 8
  %11 = load ptr, ptr %10, align 8
  %12 = sext i32 %8 to i64
  %.sroa.1.0..sroa_idx = getelementptr inbounds %class.GCPhase, ptr %11, i64 %12, i32 5
  %.sroa.1.0.copyload = load i32, ptr %.sroa.1.0..sroa_idx, align 8
  ret i32 %.sroa.1.0.copyload
}